Certificate:
    Data:
        Version: 3 (0x2)
        Serial Number: 1 (0x1)
    Signature Algorithm: sha256WithRSAEncryption
        Issuer: C=FR, ST=Ille et Vilaine, L=Le Theil de Bretagne, O=antrema.com, CN=antrema.com - CA Root/emailAddress=anthony.treuillier@gmail.com
        Validity
            Not Before: Dec 27 12:43:51 2019 GMT
            Not After : Dec 24 12:43:51 2029 GMT
        Subject: C=FR, ST=Ille et Vilaine, L=Le Theil de Bretagne, O=antrema.com, CN=antrema.com - CA SSL/emailAddress=anthony.treuillier@gmail.com
        Subject Public Key Info:
            Public Key Algorithm: rsaEncryption
                Public-Key: (4096 bit)
                Modulus:
                    00:bc:76:49:ad:56:90:95:a1:0e:08:0d:6d:97:1f:
                    81:9a:cf:f4:84:bb:95:ae:ae:58:07:e4:92:4e:84:
                    aa:7f:b0:c7:77:dc:5d:8d:b7:89:f2:f5:6a:ea:c6:
                    0e:f8:6c:55:3e:44:c9:41:97:ef:ae:f9:68:d5:0f:
                    06:39:92:ed:9a:34:99:01:db:b4:89:31:15:f8:f6:
                    2f:fe:ef:d1:0a:88:94:f7:47:ff:bb:b8:dd:87:b3:
                    f1:30:6f:69:40:12:5d:2f:6b:fa:e2:80:bf:c4:bb:
                    66:24:37:1f:7c:1f:b7:5f:9f:3f:51:b9:4b:fc:98:
                    8e:b6:24:fd:f4:58:09:fc:54:4a:f8:ec:5e:2a:8d:
                    a4:fb:b1:8c:02:ea:aa:ce:16:13:47:23:1a:3e:5c:
                    58:ed:37:0c:d9:e6:59:c8:28:2f:84:fa:f1:35:9b:
                    6d:1b:3a:ec:f0:47:b2:65:cf:d6:86:18:49:39:e9:
                    98:f8:47:31:b4:54:cf:0a:9b:d3:6c:b4:45:d7:15:
                    03:b5:67:6e:c3:c9:3f:5b:d9:39:bb:b5:1d:6b:2d:
                    03:60:3b:5c:b4:a9:4c:6f:a0:bf:0a:f2:b7:2d:06:
                    c5:22:9b:ef:d7:ad:57:81:a2:d0:6b:9d:55:5c:34:
                    d9:97:dc:6e:0f:a5:6d:02:af:7d:6d:b4:bf:2e:09:
                    a0:b7:d5:59:d8:eb:11:f7:68:ba:c9:2e:52:05:3d:
                    83:64:93:5c:c0:8c:20:65:c1:22:61:12:5c:73:00:
                    d2:eb:13:a9:4e:68:51:03:d9:c4:f0:7d:5c:ba:ef:
                    7a:0d:bc:60:fd:4a:11:15:0a:98:31:e6:61:50:dc:
                    1e:93:5b:c9:15:32:b2:20:2c:f5:78:db:a0:bb:d9:
                    7e:0b:fa:45:90:1e:d4:b6:11:67:50:54:77:3a:70:
                    87:15:36:bf:0f:a0:82:57:3b:0c:7f:c0:77:0a:fa:
                    7e:fd:7a:0e:ea:52:62:33:b1:75:fd:25:67:a8:02:
                    7d:e5:75:58:34:d5:db:d1:46:d2:fb:c5:41:ac:0c:
                    a7:7b:76:d1:96:56:56:02:c7:d1:d6:c7:dd:6d:15:
                    ff:8d:2d:8a:9d:f0:ed:85:c6:ac:24:38:77:ac:40:
                    c3:b3:25:29:68:34:91:50:57:2d:28:52:ea:5d:6f:
                    ce:49:53:75:63:20:d8:ff:c3:50:e2:df:6c:97:ed:
                    be:c8:5c:86:e4:a9:ad:81:11:8a:e9:22:5c:e1:c4:
                    f1:3b:f9:a3:00:ea:dd:35:13:dd:ab:e5:c3:f2:13:
                    6e:45:42:3b:0a:20:e5:c3:d7:a4:07:c6:c3:82:92:
                    ce:3f:e1:bf:5c:f6:fa:73:3a:9a:6b:18:74:76:8b:
                    a9:f8:f5
                Exponent: 65537 (0x10001)
        X509v3 extensions:
            X509v3 Basic Constraints: critical
                CA:TRUE
            X509v3 Subject Key Identifier: 
                1E:28:DE:FA:D0:5A:A8:2A:2E:3D:76:66:20:9F:2E:44:7B:52:E6:1B
            X509v3 Key Usage: critical
                Digital Signature, Certificate Sign, CRL Sign
            X509v3 Authority Key Identifier: 
                keyid:B4:EB:30:D8:10:72:A8:75:D4:1F:42:3D:05:96:72:33:E9:96:E2:D0
                DirName:/C=FR/ST=Ille et Vilaine/L=Le Theil de Bretagne/O=antrema.com/CN=antrema.com - CA Root/emailAddress=anthony.treuillier@gmail.com
                serial:C0:50:4C:53:9C:7D:BB:E8

            X509v3 Subject Alternative Name: 
                email:anthony.treuillier@gmail.com
            X509v3 CRL Distribution Points: 

                Full Name:
                  URI:http://pki.antrema.com/rootca.crl

    Signature Algorithm: sha256WithRSAEncryption
         0e:6a:e5:df:05:a0:53:7a:6c:c7:e8:a4:de:c4:ef:39:ee:f1:
         1d:ab:22:f0:17:85:66:8e:8e:88:bd:23:cc:31:08:68:ab:49:
         14:1a:ef:c3:af:bc:31:62:39:5d:b3:97:51:42:19:aa:06:f5:
         dd:3d:30:d9:3e:cf:00:3d:a4:82:7b:4a:52:18:a1:c5:46:bd:
         05:56:51:84:17:3a:9a:89:55:06:74:e1:1b:b1:78:24:89:7b:
         98:d0:23:8c:a0:3e:3b:85:be:6e:6d:55:d5:38:d6:e0:38:2b:
         cc:97:a1:70:11:60:a8:e8:1d:b7:2c:6a:0e:ac:f7:d8:6d:4a:
         19:c1:27:29:9a:bb:9d:d1:51:0f:c4:be:91:aa:eb:0b:3a:a1:
         ac:26:d0:6b:f8:b0:3a:40:1b:c1:40:b5:f9:fa:05:bc:16:ca:
         87:47:be:25:d7:6f:0b:c5:5d:64:87:50:3b:69:6d:f0:56:3a:
         db:a9:b7:79:7a:ff:5d:bc:a4:f9:5b:9f:e9:15:de:3c:71:01:
         af:3f:d1:5e:44:70:02:3b:e6:69:85:84:b3:be:f5:54:c3:a6:
         64:1e:d1:a1:9a:5c:16:84:99:3e:7a:ef:4b:6d:48:ba:35:51:
         29:b6:1f:16:56:c9:47:ac:32:d3:42:d3:b2:16:7f:74:d3:03:
         7d:be:e7:75:b0:b3:b5:c7:32:3a:8a:ad:f2:c1:04:49:4d:9f:
         72:01:c4:07:5b:71:1e:d9:bc:ae:af:95:1c:65:32:16:2f:6f:
         a8:7d:db:aa:c6:8c:99:52:14:33:0e:39:74:22:04:f5:ee:3d:
         45:56:0a:5e:47:dd:c9:8f:c9:b8:f5:57:99:c0:38:1c:b2:d6:
         12:b0:79:bb:8f:46:a6:3e:29:bd:d8:d2:3c:2a:b9:f7:c6:97:
         3d:45:98:28:96:85:f6:84:42:36:85:c3:f2:94:80:8a:98:ca:
         1c:a4:2c:a6:a1:6e:b6:15:a0:ff:04:be:5c:72:74:d2:0f:c9:
         19:3b:c5:c1:33:e2:c6:86:fc:b1:85:cf:10:2f:16:23:72:77:
         b2:6f:9f:db:43:75:f8:74:51:cd:e2:58:2a:85:20:dc:fb:27:
         d1:31:b4:b5:40:42:c6:80:b1:2e:c2:01:f0:6d:8c:96:9f:76:
         4a:03:f8:0d:20:6a:6a:97:93:af:b6:54:a2:8b:e6:da:28:74:
         64:b5:a4:2e:b8:e7:6f:4e:05:c3:3a:97:70:9a:bd:fe:46:fd:
         b3:44:d1:db:92:68:a1:4c:d6:bb:be:f5:f2:67:3e:b3:13:39:
         8c:b9:38:61:7f:5a:45:b4:52:f6:26:c2:b4:a9:62:a0:a0:5b:
         cc:c2:24:06:7b:da:91:d7
-----BEGIN CERTIFICATE-----
MIIHUjCCBTqgAwIBAgIBATANBgkqhkiG9w0BAQsFADCBqTELMAkGA1UEBhMCRlIx
GDAWBgNVBAgMD0lsbGUgZXQgVmlsYWluZTEdMBsGA1UEBwwUTGUgVGhlaWwgZGUg
QnJldGFnbmUxFDASBgNVBAoMC2FudHJlbWEuY29tMR4wHAYDVQQDDBVhbnRyZW1h
LmNvbSAtIENBIFJvb3QxKzApBgkqhkiG9w0BCQEWHGFudGhvbnkudHJldWlsbGll
ckBnbWFpbC5jb20wHhcNMTkxMjI3MTI0MzUxWhcNMjkxMjI0MTI0MzUxWjCBqDEL
MAkGA1UEBhMCRlIxGDAWBgNVBAgMD0lsbGUgZXQgVmlsYWluZTEdMBsGA1UEBwwU
TGUgVGhlaWwgZGUgQnJldGFnbmUxFDASBgNVBAoMC2FudHJlbWEuY29tMR0wGwYD
VQQDDBRhbnRyZW1hLmNvbSAtIENBIFNTTDErMCkGCSqGSIb3DQEJARYcYW50aG9u
eS50cmV1aWxsaWVyQGdtYWlsLmNvbTCCAiIwDQYJKoZIhvcNAQEBBQADggIPADCC
AgoCggIBALx2Sa1WkJWhDggNbZcfgZrP9IS7la6uWAfkkk6Eqn+wx3fcXY23ifL1
aurGDvhsVT5EyUGX7675aNUPBjmS7Zo0mQHbtIkxFfj2L/7v0QqIlPdH/7u43Yez
8TBvaUASXS9r+uKAv8S7ZiQ3H3wft1+fP1G5S/yYjrYk/fRYCfxUSvjsXiqNpPux
jALqqs4WE0cjGj5cWO03DNnmWcgoL4T68TWbbRs67PBHsmXP1oYYSTnpmPhHMbRU
zwqb02y0RdcVA7VnbsPJP1vZObu1HWstA2A7XLSpTG+gvwryty0GxSKb79etV4Gi
0GudVVw02Zfcbg+lbQKvfW20vy4JoLfVWdjrEfdouskuUgU9g2STXMCMIGXBImES
XHMA0usTqU5oUQPZxPB9XLrveg28YP1KERUKmDHmYVDcHpNbyRUysiAs9XjboLvZ
fgv6RZAe1LYRZ1BUdzpwhxU2vw+gglc7DH/Adwr6fv16DupSYjOxdf0lZ6gCfeV1
WDTV29FG0vvFQawMp3t20ZZWVgLH0dbH3W0V/40tip3w7YXGrCQ4d6xAw7MlKWg0
kVBXLShS6l1vzklTdWMg2P/DUOLfbJftvshchuSprYERiukiXOHE8Tv5owDq3TUT
3avlw/ITbkVCOwog5cPXpAfGw4KSzj/hv1z2+nM6mmsYdHaLqfj1AgMBAAGjggGC
MIIBfjAPBgNVHRMBAf8EBTADAQH/MB0GA1UdDgQWBBQeKN760FqoKi49dmYgny5E
e1LmGzAOBgNVHQ8BAf8EBAMCAYYwgd4GA1UdIwSB1jCB04AUtOsw2BByqHXUH0I9
BZZyM+mW4tChga+kgawwgakxCzAJBgNVBAYTAkZSMRgwFgYDVQQIDA9JbGxlIGV0
IFZpbGFpbmUxHTAbBgNVBAcMFExlIFRoZWlsIGRlIEJyZXRhZ25lMRQwEgYDVQQK
DAthbnRyZW1hLmNvbTEeMBwGA1UEAwwVYW50cmVtYS5jb20gLSBDQSBSb290MSsw
KQYJKoZIhvcNAQkBFhxhbnRob255LnRyZXVpbGxpZXJAZ21haWwuY29tggkAwFBM
U5x9u+gwJwYDVR0RBCAwHoEcYW50aG9ueS50cmV1aWxsaWVyQGdtYWlsLmNvbTAy
BgNVHR8EKzApMCegJaAjhiFodHRwOi8vcGtpLmFudHJlbWEuY29tL3Jvb3RjYS5j
cmwwDQYJKoZIhvcNAQELBQADggIBAA5q5d8FoFN6bMfopN7E7znu8R2rIvAXhWaO
joi9I8wxCGirSRQa78OvvDFiOV2zl1FCGaoG9d09MNk+zwA9pIJ7SlIYocVGvQVW
UYQXOpqJVQZ04RuxeCSJe5jQI4ygPjuFvm5tVdU41uA4K8yXoXARYKjoHbcsag6s
99htShnBJymau53RUQ/EvpGq6ws6oawm0Gv4sDpAG8FAtfn6BbwWyodHviXXbwvF
XWSHUDtpbfBWOtupt3l6/128pPlbn+kV3jxxAa8/0V5EcAI75mmFhLO+9VTDpmQe
0aGaXBaEmT5670ttSLo1USm2HxZWyUesMtNC07IWf3TTA32+53Wws7XHMjqKrfLB
BElNn3IBxAdbcR7ZvK6vlRxlMhYvb6h926rGjJlSFDMOOXQiBPXuPUVWCl5H3cmP
ybj1V5nAOByy1hKwebuPRqY+Kb3Y0jwquffGlz1FmCiWhfaEQjaFw/KUgIqYyhyk
LKahbrYVoP8EvlxydNIPyRk7xcEz4saG/LGFzxAvFiNyd7Jvn9tDdfh0Uc3iWCqF
INz7J9ExtLVAQsaAsS7CAfBtjJafdkoD+A0gamqXk6+2VKKL5toodGS1pC64529O
BcM6l3Cavf5G/bNE0duSaKFM1ru+9fJnPrMTOYy5OGF/WkW0UvYmwrSpYqCgW8zC
JAZ72pHX
-----END CERTIFICATE-----
